target datalayout = "e-m:e-p270:32:32-p271:32:32-p272:64:64-i64:64-i128:128-f80:128-n8:16:32:64-S128"
target triple = "x86_64-pc-linux-gnu"

%"class.smtfd::plugin_context" = type { ptr, ptr, %class.ref_vector, i32, %class.th_rewriter, %class.ptr_vector.0, %class.ref }
%class.ref_vector = type { %class.ref_vector_core }
%class.ref_vector_core = type { %class.ref_manager_wrapper, %class.ptr_vector }
%class.ref_manager_wrapper = type { ptr }
%class.ptr_vector = type { %class.vector }
%class.vector = type { ptr }
%class.th_rewriter = type { ptr, %class.params_ref }
%class.params_ref = type { ptr }
%class.ptr_vector.0 = type { %class.vector.1 }
%class.vector.1 = type { ptr }
%class.ref = type { ptr }

; Function Attrs: mustprogress nounwind uwtable
define linkonce_odr hidden noundef i32 @_ZNK6vectorIPN5smtfd13theory_pluginELb0EjE4sizeEv(ptr noundef nonnull align 8 dereferenceable(8) %0) #6 comdat align 2 {
  %2 = alloca i32, align 4
  %3 = alloca ptr, align 8
  store ptr %0, ptr %3, align 8, !tbaa !19
  %4 = load ptr, ptr %3, align 8
  %5 = getelementptr inbounds nuw %class.vector.1, ptr %4, i32 0, i32 0
  %6 = load ptr, ptr %5, align 8, !tbaa !21
  %7 = icmp eq ptr %6, null
  br i1 %7, label %8, label %9

8:                                                ; preds = %1
  store i32 0, ptr %2, align 4
  br label %14

9:                                                ; preds = %1
  %10 = getelementptr inbounds nuw %class.vector.1, ptr %4, i32 0, i32 0
  %11 = load ptr, ptr %10, align 8, !tbaa !21
  %12 = getelementptr inbounds i32, ptr %11, i64 -1
  %13 = load i32, ptr %12, align 4, !tbaa !23
  store i32 %13, ptr %2, align 4
  br label %14

14:                                               ; preds = %9, %8
  %15 = load i32, ptr %2, align 4
  ret i32 %15
}

; Function Attrs: mustprogress uwtable
define linkonce_odr hidden noundef ptr @_ZN6vectorIPN5smtfd13theory_pluginELb0EjE3endEv(ptr noundef nonnull align 8 dereferenceable(8) %0) #4 comdat align 2 {
  %2 = alloca ptr, align 8
  store ptr %0, ptr %2, align 8, !tbaa !19
  %3 = load ptr, ptr %2, align 8
  %4 = getelementptr inbounds nuw %class.vector.1, ptr %3, i32 0, i32 0
  %5 = load ptr, ptr %4, align 8, !tbaa !21
  %6 = call noundef i32 @_ZNK6vectorIPN5smtfd13theory_pluginELb0EjE4sizeEv(ptr noundef nonnull align 8 dereferenceable(8) %3)
  %7 = zext i32 %6 to i64
  %8 = getelementptr inbounds nuw ptr, ptr %5, i64 %7
  ret ptr %8
}

; Function Attrs: mustprogress nounwind uwtable
define linkonce_odr hidden noundef ptr @_ZN6vectorIPN5smtfd13theory_pluginELb0EjE5beginEv(ptr noundef nonnull align 8 dereferenceable(8) %0) #6 comdat align 2 {
  %2 = alloca ptr, align 8
  store ptr %0, ptr %2, align 8, !tbaa !19
  %3 = load ptr, ptr %2, align 8
  %4 = getelementptr inbounds nuw %class.vector.1, ptr %3, i32 0, i32 0
  %5 = load ptr, ptr %4, align 8, !tbaa !21
  ret ptr %5
}

; Function Attrs: mustprogress uwtable
define hidden void @_ZN5smtfd14plugin_context14populate_modelER3refI5modelERK10ref_vectorI4expr11ast_managerE(ptr noundef nonnull align 8 dereferenceable(72) %0, ptr noundef nonnull align 8 dereferenceable(8) %1, ptr noundef nonnull align 8 dereferenceable(16) %2) #4 align 2 {
  %4 = alloca ptr, align 8
  %5 = alloca ptr, align 8
  %6 = alloca ptr, align 8
  %7 = alloca ptr, align 8
  %8 = alloca ptr, align 8
  %9 = alloca ptr, align 8
  %10 = alloca ptr, align 8
  store ptr %0, ptr %4, align 8, !tbaa !3
  store ptr %1, ptr %5, align 8, !tbaa !64
  store ptr %2, ptr %6, align 8, !tbaa !8
  %11 = load ptr, ptr %4, align 8
  call void @llvm.lifetime.start.p0(i64 8, ptr %7) #3
  %12 = getelementptr inbounds nuw %"class.smtfd::plugin_context", ptr %11, i32 0, i32 5
  store ptr %12, ptr %7, align 8, !tbaa !10
  call void @llvm.lifetime.start.p0(i64 8, ptr %8) #3
  %13 = load ptr, ptr %7, align 8, !tbaa !10
  %14 = call noundef ptr @_ZN6vectorIPN5smtfd13theory_pluginELb0EjE5beginEv(ptr noundef nonnull align 8 dereferenceable(8) %13)
  store ptr %14, ptr %8, align 8, !tbaa !12
  call void @llvm.lifetime.start.p0(i64 8, ptr %9) #3
  %15 = load ptr, ptr %7, align 8, !tbaa !10
  %16 = call noundef ptr @_ZN6vectorIPN5smtfd13theory_pluginELb0EjE3endEv(ptr noundef nonnull align 8 dereferenceable(8) %15)
  store ptr %16, ptr %9, align 8, !tbaa !12
  br label %17

17:                                               ; preds = %31, %3
  %18 = load ptr, ptr %8, align 8, !tbaa !12
  %19 = load ptr, ptr %9, align 8, !tbaa !12
  %20 = icmp ne ptr %18, %19
  br i1 %20, label %22, label %21

21:                                               ; preds = %17
  call void @llvm.lifetime.end.p0(i64 8, ptr %9) #3
  call void @llvm.lifetime.end.p0(i64 8, ptr %8) #3
  call void @llvm.lifetime.end.p0(i64 8, ptr %7) #3
  br label %34

22:                                               ; preds = %17
  call void @llvm.lifetime.start.p0(i64 8, ptr %10) #3
  %23 = load ptr, ptr %8, align 8, !tbaa !12
  %24 = load ptr, ptr %23, align 8, !tbaa !15
  store ptr %24, ptr %10, align 8, !tbaa !15
  %25 = load ptr, ptr %10, align 8, !tbaa !15
  %26 = load ptr, ptr %5, align 8, !tbaa !64
  %27 = load ptr, ptr %6, align 8, !tbaa !8
  %28 = load ptr, ptr %25, align 8, !tbaa !17
  %29 = getelementptr inbounds ptr, ptr %28, i64 9
  %30 = load ptr, ptr %29, align 8
  call void %30(ptr noundef nonnull align 8 dereferenceable(144) %25, ptr noundef nonnull align 8 dereferenceable(8) %26, ptr noundef nonnull align 8 dereferenceable(16) %27)
  call void @llvm.lifetime.end.p0(i64 8, ptr %10) #3
  br label %31

31:                                               ; preds = %22
  %32 = load ptr, ptr %8, align 8, !tbaa !12
  %33 = getelementptr inbounds nuw ptr, ptr %32, i32 1
  store ptr %33, ptr %8, align 8, !tbaa !12
  br label %17

34:                                               ; preds = %21
  ret void
}