; Function Attrs: mustprogress uwtable
define hidden void @_ZN5smtfd14plugin_context14populate_modelER3refI5modelERK10ref_vectorI4expr11ast_managerE(ptr noundef nonnull readonly align 8 captures(none) dereferenceable(72) %0, ptr noundef nonnull align 8 dereferenceable(8) %1, ptr noundef nonnull align 8 dereferenceable(16) %2) local_unnamed_addr #3 align 2 {
  %4 = getelementptr inbounds nuw i8, ptr %0, i64 56
  %5 = load ptr, ptr %4, align 8, !tbaa !3
  %6 = icmp eq ptr %5, null
  br i1 %6, label %._crit_edge, label %_ZN6vectorIPN5smtfd13theory_pluginELb0EjE3endEv.exit

_ZN6vectorIPN5smtfd13theory_pluginELb0EjE3endEv.exit: ; preds = %3
  %7 = getelementptr inbounds i8, ptr %5, i64 -4
  %8 = load i32, ptr %7, align 4, !tbaa !10
  %9 = zext i32 %8 to i64
  %10 = getelementptr inbounds nuw ptr, ptr %5, i64 %9
  %.not10 = icmp eq i32 %8, 0
  br i1 %.not10, label %._crit_edge, label %.lr.ph

._crit_edge:                                      ; preds = %.lr.ph, %3, %_ZN6vectorIPN5smtfd13theory_pluginELb0EjE3endEv.exit
  ret void

.lr.ph:                                           ; preds = %_ZN6vectorIPN5smtfd13theory_pluginELb0EjE3endEv.exit, %.lr.ph
  %.011 = phi ptr [ %15, %.lr.ph ], [ %5, %_ZN6vectorIPN5smtfd13theory_pluginELb0EjE3endEv.exit ]
  %11 = load ptr, ptr %.011, align 8, !tbaa !12
  %12 = load ptr, ptr %11, align 8, !tbaa !14
  %13 = getelementptr inbounds nuw i8, ptr %12, i64 72
  %14 = load ptr, ptr %13, align 8
  tail call void %14(ptr noundef nonnull align 8 dereferenceable(144) %11, ptr noundef nonnull align 8 dereferenceable(8) %1, ptr noundef nonnull align 8 dereferenceable(16) %2)
  %15 = getelementptr inbounds nuw i8, ptr %.011, i64 8
  %.not = icmp eq ptr %15, %10
  br i1 %.not, label %._crit_edge, label %.lr.ph
}